Archive member included to satisfy reference by file (symbol)

c:/progra~2/gnuarm~1/102020~1/bin/../lib/gcc/arm-none-eabi/10.2.1/../../../../arm-none-eabi/lib/thumb/v7e-m+dp/hard\libc_nano.a(lib_a-exit.o)
                              c:/progra~2/gnuarm~1/102020~1/bin/../lib/gcc/arm-none-eabi/10.2.1/../../../../arm-none-eabi/lib/thumb/v7e-m+dp/hard/crt0.o (exit)
c:/progra~2/gnuarm~1/102020~1/bin/../lib/gcc/arm-none-eabi/10.2.1/../../../../arm-none-eabi/lib/thumb/v7e-m+dp/hard\libc_nano.a(lib_a-impure.o)
                              c:/progra~2/gnuarm~1/102020~1/bin/../lib/gcc/arm-none-eabi/10.2.1/../../../../arm-none-eabi/lib/thumb/v7e-m+dp/hard\libc_nano.a(lib_a-exit.o) (_global_impure_ptr)
c:/progra~2/gnuarm~1/102020~1/bin/../lib/gcc/arm-none-eabi/10.2.1/../../../../arm-none-eabi/lib/thumb/v7e-m+dp/hard\libc_nano.a(lib_a-init.o)
                              c:/progra~2/gnuarm~1/102020~1/bin/../lib/gcc/arm-none-eabi/10.2.1/../../../../arm-none-eabi/lib/thumb/v7e-m+dp/hard/crt0.o (__libc_init_array)
c:/progra~2/gnuarm~1/102020~1/bin/../lib/gcc/arm-none-eabi/10.2.1/../../../../arm-none-eabi/lib/thumb/v7e-m+dp/hard\libc_nano.a(lib_a-memset.o)
                              c:/progra~2/gnuarm~1/102020~1/bin/../lib/gcc/arm-none-eabi/10.2.1/../../../../arm-none-eabi/lib/thumb/v7e-m+dp/hard/crt0.o (memset)
c:/progra~2/gnuarm~1/102020~1/bin/../lib/gcc/arm-none-eabi/10.2.1/../../../../arm-none-eabi/lib/thumb/v7e-m+dp/hard\libnosys.a(_exit.o)
                              c:/progra~2/gnuarm~1/102020~1/bin/../lib/gcc/arm-none-eabi/10.2.1/../../../../arm-none-eabi/lib/thumb/v7e-m+dp/hard\libc_nano.a(lib_a-exit.o) (_exit)

Discarded input sections

 .text          0x00000000        0x0 c:/progra~2/gnuarm~1/102020~1/bin/../lib/gcc/arm-none-eabi/10.2.1/thumb/v7e-m+dp/hard/crti.o
 .data          0x00000000        0x0 c:/progra~2/gnuarm~1/102020~1/bin/../lib/gcc/arm-none-eabi/10.2.1/thumb/v7e-m+dp/hard/crti.o
 .bss           0x00000000        0x0 c:/progra~2/gnuarm~1/102020~1/bin/../lib/gcc/arm-none-eabi/10.2.1/thumb/v7e-m+dp/hard/crti.o
 .data          0x00000000        0x4 c:/progra~2/gnuarm~1/102020~1/bin/../lib/gcc/arm-none-eabi/10.2.1/thumb/v7e-m+dp/hard/crtbegin.o
 .rodata        0x00000000       0x24 c:/progra~2/gnuarm~1/102020~1/bin/../lib/gcc/arm-none-eabi/10.2.1/thumb/v7e-m+dp/hard/crtbegin.o
 .text          0x00000000       0x7c c:/progra~2/gnuarm~1/102020~1/bin/../lib/gcc/arm-none-eabi/10.2.1/../../../../arm-none-eabi/lib/thumb/v7e-m+dp/hard/crt0.o
 .data          0x00000000        0x0 c:/progra~2/gnuarm~1/102020~1/bin/../lib/gcc/arm-none-eabi/10.2.1/../../../../arm-none-eabi/lib/thumb/v7e-m+dp/hard/crt0.o
 .bss           0x00000000        0x0 c:/progra~2/gnuarm~1/102020~1/bin/../lib/gcc/arm-none-eabi/10.2.1/../../../../arm-none-eabi/lib/thumb/v7e-m+dp/hard/crt0.o
 .ARM.extab     0x00000000        0x0 c:/progra~2/gnuarm~1/102020~1/bin/../lib/gcc/arm-none-eabi/10.2.1/../../../../arm-none-eabi/lib/thumb/v7e-m+dp/hard/crt0.o
 .ARM.exidx     0x00000000       0x10 c:/progra~2/gnuarm~1/102020~1/bin/../lib/gcc/arm-none-eabi/10.2.1/../../../../arm-none-eabi/lib/thumb/v7e-m+dp/hard/crt0.o
 .ARM.attributes
                0x00000000       0x1c c:/progra~2/gnuarm~1/102020~1/bin/../lib/gcc/arm-none-eabi/10.2.1/../../../../arm-none-eabi/lib/thumb/v7e-m+dp/hard/crt0.o
 .text          0x00000000        0x0 c:/progra~2/gnuarm~1/102020~1/bin/../lib/gcc/arm-none-eabi/10.2.1/../../../../arm-none-eabi/lib/thumb/v7e-m+dp/hard\libc_nano.a(lib_a-exit.o)
 .data          0x00000000        0x0 c:/progra~2/gnuarm~1/102020~1/bin/../lib/gcc/arm-none-eabi/10.2.1/../../../../arm-none-eabi/lib/thumb/v7e-m+dp/hard\libc_nano.a(lib_a-exit.o)
 .bss           0x00000000        0x0 c:/progra~2/gnuarm~1/102020~1/bin/../lib/gcc/arm-none-eabi/10.2.1/../../../../arm-none-eabi/lib/thumb/v7e-m+dp/hard\libc_nano.a(lib_a-exit.o)
 .text.exit     0x00000000       0x28 c:/progra~2/gnuarm~1/102020~1/bin/../lib/gcc/arm-none-eabi/10.2.1/../../../../arm-none-eabi/lib/thumb/v7e-m+dp/hard\libc_nano.a(lib_a-exit.o)
 .debug_frame   0x00000000       0x28 c:/progra~2/gnuarm~1/102020~1/bin/../lib/gcc/arm-none-eabi/10.2.1/../../../../arm-none-eabi/lib/thumb/v7e-m+dp/hard\libc_nano.a(lib_a-exit.o)
 .ARM.attributes
                0x00000000       0x32 c:/progra~2/gnuarm~1/102020~1/bin/../lib/gcc/arm-none-eabi/10.2.1/../../../../arm-none-eabi/lib/thumb/v7e-m+dp/hard\libc_nano.a(lib_a-exit.o)
 .text          0x00000000        0x0 c:/progra~2/gnuarm~1/102020~1/bin/../lib/gcc/arm-none-eabi/10.2.1/../../../../arm-none-eabi/lib/thumb/v7e-m+dp/hard\libc_nano.a(lib_a-impure.o)
 .data          0x00000000        0x0 c:/progra~2/gnuarm~1/102020~1/bin/../lib/gcc/arm-none-eabi/10.2.1/../../../../arm-none-eabi/lib/thumb/v7e-m+dp/hard\libc_nano.a(lib_a-impure.o)
 .bss           0x00000000        0x0 c:/progra~2/gnuarm~1/102020~1/bin/../lib/gcc/arm-none-eabi/10.2.1/../../../../arm-none-eabi/lib/thumb/v7e-m+dp/hard\libc_nano.a(lib_a-impure.o)
 .data._impure_ptr
                0x00000000        0x4 c:/progra~2/gnuarm~1/102020~1/bin/../lib/gcc/arm-none-eabi/10.2.1/../../../../arm-none-eabi/lib/thumb/v7e-m+dp/hard\libc_nano.a(lib_a-impure.o)
 .data.impure_data
                0x00000000       0x60 c:/progra~2/gnuarm~1/102020~1/bin/../lib/gcc/arm-none-eabi/10.2.1/../../../../arm-none-eabi/lib/thumb/v7e-m+dp/hard\libc_nano.a(lib_a-impure.o)
 .rodata._global_impure_ptr
                0x00000000        0x4 c:/progra~2/gnuarm~1/102020~1/bin/../lib/gcc/arm-none-eabi/10.2.1/../../../../arm-none-eabi/lib/thumb/v7e-m+dp/hard\libc_nano.a(lib_a-impure.o)
 .ARM.attributes
                0x00000000       0x30 c:/progra~2/gnuarm~1/102020~1/bin/../lib/gcc/arm-none-eabi/10.2.1/../../../../arm-none-eabi/lib/thumb/v7e-m+dp/hard\libc_nano.a(lib_a-impure.o)
 .text          0x00000000        0x0 c:/progra~2/gnuarm~1/102020~1/bin/../lib/gcc/arm-none-eabi/10.2.1/../../../../arm-none-eabi/lib/thumb/v7e-m+dp/hard\libc_nano.a(lib_a-init.o)
 .data          0x00000000        0x0 c:/progra~2/gnuarm~1/102020~1/bin/../lib/gcc/arm-none-eabi/10.2.1/../../../../arm-none-eabi/lib/thumb/v7e-m+dp/hard\libc_nano.a(lib_a-init.o)
 .bss           0x00000000        0x0 c:/progra~2/gnuarm~1/102020~1/bin/../lib/gcc/arm-none-eabi/10.2.1/../../../../arm-none-eabi/lib/thumb/v7e-m+dp/hard\libc_nano.a(lib_a-init.o)
 .text          0x00000000        0x0 c:/progra~2/gnuarm~1/102020~1/bin/../lib/gcc/arm-none-eabi/10.2.1/../../../../arm-none-eabi/lib/thumb/v7e-m+dp/hard\libc_nano.a(lib_a-memset.o)
 .data          0x00000000        0x0 c:/progra~2/gnuarm~1/102020~1/bin/../lib/gcc/arm-none-eabi/10.2.1/../../../../arm-none-eabi/lib/thumb/v7e-m+dp/hard\libc_nano.a(lib_a-memset.o)
 .bss           0x00000000        0x0 c:/progra~2/gnuarm~1/102020~1/bin/../lib/gcc/arm-none-eabi/10.2.1/../../../../arm-none-eabi/lib/thumb/v7e-m+dp/hard\libc_nano.a(lib_a-memset.o)
 .text.memset   0x00000000       0x10 c:/progra~2/gnuarm~1/102020~1/bin/../lib/gcc/arm-none-eabi/10.2.1/../../../../arm-none-eabi/lib/thumb/v7e-m+dp/hard\libc_nano.a(lib_a-memset.o)
 .debug_frame   0x00000000       0x20 c:/progra~2/gnuarm~1/102020~1/bin/../lib/gcc/arm-none-eabi/10.2.1/../../../../arm-none-eabi/lib/thumb/v7e-m+dp/hard\libc_nano.a(lib_a-memset.o)
 .ARM.attributes
                0x00000000       0x32 c:/progra~2/gnuarm~1/102020~1/bin/../lib/gcc/arm-none-eabi/10.2.1/../../../../arm-none-eabi/lib/thumb/v7e-m+dp/hard\libc_nano.a(lib_a-memset.o)
 .text          0x00000000        0x0 c:/progra~2/gnuarm~1/102020~1/bin/../lib/gcc/arm-none-eabi/10.2.1/../../../../arm-none-eabi/lib/thumb/v7e-m+dp/hard\libnosys.a(_exit.o)
 .data          0x00000000        0x0 c:/progra~2/gnuarm~1/102020~1/bin/../lib/gcc/arm-none-eabi/10.2.1/../../../../arm-none-eabi/lib/thumb/v7e-m+dp/hard\libnosys.a(_exit.o)
 .bss           0x00000000        0x0 c:/progra~2/gnuarm~1/102020~1/bin/../lib/gcc/arm-none-eabi/10.2.1/../../../../arm-none-eabi/lib/thumb/v7e-m+dp/hard\libnosys.a(_exit.o)
 .text._exit    0x00000000        0x4 c:/progra~2/gnuarm~1/102020~1/bin/../lib/gcc/arm-none-eabi/10.2.1/../../../../arm-none-eabi/lib/thumb/v7e-m+dp/hard\libnosys.a(_exit.o)
 .debug_frame   0x00000000       0x20 c:/progra~2/gnuarm~1/102020~1/bin/../lib/gcc/arm-none-eabi/10.2.1/../../../../arm-none-eabi/lib/thumb/v7e-m+dp/hard\libnosys.a(_exit.o)
 .ARM.attributes
                0x00000000       0x32 c:/progra~2/gnuarm~1/102020~1/bin/../lib/gcc/arm-none-eabi/10.2.1/../../../../arm-none-eabi/lib/thumb/v7e-m+dp/hard\libnosys.a(_exit.o)
 .text          0x00000000       0x14 device/CMakeFiles/DEVICE.dir/startup_stm32h743zitx.s.obj
 .data          0x00000000        0x0 device/CMakeFiles/DEVICE.dir/startup_stm32h743zitx.s.obj
 .bss           0x00000000        0x0 device/CMakeFiles/DEVICE.dir/startup_stm32h743zitx.s.obj
 .group         0x00000000        0xc device/CMakeFiles/DEVICE.dir/system_stm32h7xx.c.obj
 .group         0x00000000        0xc device/CMakeFiles/DEVICE.dir/system_stm32h7xx.c.obj
 .group         0x00000000        0xc device/CMakeFiles/DEVICE.dir/system_stm32h7xx.c.obj
 .group         0x00000000        0xc device/CMakeFiles/DEVICE.dir/system_stm32h7xx.c.obj
 .group         0x00000000        0xc device/CMakeFiles/DEVICE.dir/system_stm32h7xx.c.obj
 .group         0x00000000        0xc device/CMakeFiles/DEVICE.dir/system_stm32h7xx.c.obj
 .group         0x00000000        0xc device/CMakeFiles/DEVICE.dir/system_stm32h7xx.c.obj
 .group         0x00000000        0xc device/CMakeFiles/DEVICE.dir/system_stm32h7xx.c.obj
 .group         0x00000000        0xc device/CMakeFiles/DEVICE.dir/system_stm32h7xx.c.obj
 .group         0x00000000        0xc device/CMakeFiles/DEVICE.dir/system_stm32h7xx.c.obj
 .group         0x00000000        0xc device/CMakeFiles/DEVICE.dir/system_stm32h7xx.c.obj
 .group         0x00000000        0xc device/CMakeFiles/DEVICE.dir/system_stm32h7xx.c.obj
 .group         0x00000000        0xc device/CMakeFiles/DEVICE.dir/system_stm32h7xx.c.obj
 .group         0x00000000        0xc device/CMakeFiles/DEVICE.dir/system_stm32h7xx.c.obj
 .group         0x00000000        0xc device/CMakeFiles/DEVICE.dir/system_stm32h7xx.c.obj
 .group         0x00000000        0xc device/CMakeFiles/DEVICE.dir/system_stm32h7xx.c.obj
 .group         0x00000000        0xc device/CMakeFiles/DEVICE.dir/system_stm32h7xx.c.obj
 .group         0x00000000        0xc device/CMakeFiles/DEVICE.dir/system_stm32h7xx.c.obj
 .group         0x00000000        0xc device/CMakeFiles/DEVICE.dir/system_stm32h7xx.c.obj
 .group         0x00000000        0xc device/CMakeFiles/DEVICE.dir/system_stm32h7xx.c.obj
 .group         0x00000000        0xc device/CMakeFiles/DEVICE.dir/system_stm32h7xx.c.obj
 .group         0x00000000        0xc device/CMakeFiles/DEVICE.dir/system_stm32h7xx.c.obj
 .group         0x00000000        0xc device/CMakeFiles/DEVICE.dir/system_stm32h7xx.c.obj
 .group         0x00000000        0xc device/CMakeFiles/DEVICE.dir/system_stm32h7xx.c.obj
 .group         0x00000000        0xc device/CMakeFiles/DEVICE.dir/system_stm32h7xx.c.obj
 .group         0x00000000        0xc device/CMakeFiles/DEVICE.dir/system_stm32h7xx.c.obj
 .group         0x00000000        0xc device/CMakeFiles/DEVICE.dir/system_stm32h7xx.c.obj
 .group         0x00000000        0xc device/CMakeFiles/DEVICE.dir/system_stm32h7xx.c.obj
 .group         0x00000000        0xc device/CMakeFiles/DEVICE.dir/system_stm32h7xx.c.obj
 .group         0x00000000        0xc device/CMakeFiles/DEVICE.dir/system_stm32h7xx.c.obj
 .group         0x00000000        0xc device/CMakeFiles/DEVICE.dir/system_stm32h7xx.c.obj
 .group         0x00000000        0xc device/CMakeFiles/DEVICE.dir/system_stm32h7xx.c.obj
 .group         0x00000000        0xc device/CMakeFiles/DEVICE.dir/system_stm32h7xx.c.obj
 .group         0x00000000        0xc device/CMakeFiles/DEVICE.dir/system_stm32h7xx.c.obj
 .group         0x00000000        0xc device/CMakeFiles/DEVICE.dir/system_stm32h7xx.c.obj
 .group         0x00000000        0xc device/CMakeFiles/DEVICE.dir/system_stm32h7xx.c.obj
 .group         0x00000000        0xc device/CMakeFiles/DEVICE.dir/system_stm32h7xx.c.obj
 .group         0x00000000        0xc device/CMakeFiles/DEVICE.dir/system_stm32h7xx.c.obj
 .group         0x00000000        0xc device/CMakeFiles/DEVICE.dir/system_stm32h7xx.c.obj
 .group         0x00000000        0xc device/CMakeFiles/DEVICE.dir/system_stm32h7xx.c.obj
 .group         0x00000000        0xc device/CMakeFiles/DEVICE.dir/system_stm32h7xx.c.obj
 .group         0x00000000        0xc device/CMakeFiles/DEVICE.dir/system_stm32h7xx.c.obj
 .group         0x00000000        0xc device/CMakeFiles/DEVICE.dir/system_stm32h7xx.c.obj
 .group         0x00000000        0xc device/CMakeFiles/DEVICE.dir/system_stm32h7xx.c.obj
 .group         0x00000000        0xc device/CMakeFiles/DEVICE.dir/system_stm32h7xx.c.obj
 .group         0x00000000        0xc device/CMakeFiles/DEVICE.dir/system_stm32h7xx.c.obj
 .group         0x00000000        0xc device/CMakeFiles/DEVICE.dir/system_stm32h7xx.c.obj
 .group         0x00000000        0xc device/CMakeFiles/DEVICE.dir/system_stm32h7xx.c.obj
 .group         0x00000000        0xc device/CMakeFiles/DEVICE.dir/system_stm32h7xx.c.obj
 .group         0x00000000        0xc device/CMakeFiles/DEVICE.dir/system_stm32h7xx.c.obj
 .group         0x00000000        0xc device/CMakeFiles/DEVICE.dir/system_stm32h7xx.c.obj
 .group         0x00000000        0xc device/CMakeFiles/DEVICE.dir/system_stm32h7xx.c.obj
 .group         0x00000000        0xc device/CMakeFiles/DEVICE.dir/system_stm32h7xx.c.obj
 .group         0x00000000        0xc device/CMakeFiles/DEVICE.dir/system_stm32h7xx.c.obj
 .group         0x00000000        0xc device/CMakeFiles/DEVICE.dir/system_stm32h7xx.c.obj
 .group         0x00000000        0xc device/CMakeFiles/DEVICE.dir/system_stm32h7xx.c.obj
 .group         0x00000000        0xc device/CMakeFiles/DEVICE.dir/system_stm32h7xx.c.obj
 .group         0x00000000        0xc device/CMakeFiles/DEVICE.dir/system_stm32h7xx.c.obj
 .group         0x00000000        0xc device/CMakeFiles/DEVICE.dir/system_stm32h7xx.c.obj
 .group         0x00000000        0xc device/CMakeFiles/DEVICE.dir/system_stm32h7xx.c.obj
 .group         0x00000000        0xc device/CMakeFiles/DEVICE.dir/system_stm32h7xx.c.obj
 .group         0x00000000        0xc device/CMakeFiles/DEVICE.dir/system_stm32h7xx.c.obj
 .text          0x00000000        0x0 device/CMakeFiles/DEVICE.dir/system_stm32h7xx.c.obj
 .data          0x00000000        0x0 device/CMakeFiles/DEVICE.dir/system_stm32h7xx.c.obj
 .bss           0x00000000        0x0 device/CMakeFiles/DEVICE.dir/system_stm32h7xx.c.obj
 .data.SystemCoreClock
                0x00000000        0x4 device/CMakeFiles/DEVICE.dir/system_stm32h7xx.c.obj
 .data.SystemD2Clock
                0x00000000        0x4 device/CMakeFiles/DEVICE.dir/system_stm32h7xx.c.obj
 .rodata.D1CorePrescTable
                0x00000000       0x10 device/CMakeFiles/DEVICE.dir/system_stm32h7xx.c.obj
 .text.SystemCoreClockUpdate
                0x00000000      0x2f4 device/CMakeFiles/DEVICE.dir/system_stm32h7xx.c.obj
 .group         0x00000000        0xc CMakeFiles/CMAKE_Simple.elf.dir/src/main.c.obj
 .text          0x00000000        0x0 CMakeFiles/CMAKE_Simple.elf.dir/src/main.c.obj
 .data          0x00000000        0x0 CMakeFiles/CMAKE_Simple.elf.dir/src/main.c.obj
 .bss           0x00000000        0x0 CMakeFiles/CMAKE_Simple.elf.dir/src/main.c.obj
 .debug_macro   0x00000000      0xa8a CMakeFiles/CMAKE_Simple.elf.dir/src/main.c.obj
 .text          0x00000000        0x0 c:/progra~2/gnuarm~1/102020~1/bin/../lib/gcc/arm-none-eabi/10.2.1/thumb/v7e-m+dp/hard/crtend.o
 .data          0x00000000        0x0 c:/progra~2/gnuarm~1/102020~1/bin/../lib/gcc/arm-none-eabi/10.2.1/thumb/v7e-m+dp/hard/crtend.o
 .bss           0x00000000        0x0 c:/progra~2/gnuarm~1/102020~1/bin/../lib/gcc/arm-none-eabi/10.2.1/thumb/v7e-m+dp/hard/crtend.o
 .rodata        0x00000000       0x24 c:/progra~2/gnuarm~1/102020~1/bin/../lib/gcc/arm-none-eabi/10.2.1/thumb/v7e-m+dp/hard/crtend.o
 .eh_frame      0x00000000        0x4 c:/progra~2/gnuarm~1/102020~1/bin/../lib/gcc/arm-none-eabi/10.2.1/thumb/v7e-m+dp/hard/crtend.o
 .ARM.attributes
                0x00000000       0x30 c:/progra~2/gnuarm~1/102020~1/bin/../lib/gcc/arm-none-eabi/10.2.1/thumb/v7e-m+dp/hard/crtend.o
 .text          0x00000000        0x0 c:/progra~2/gnuarm~1/102020~1/bin/../lib/gcc/arm-none-eabi/10.2.1/thumb/v7e-m+dp/hard/crtn.o
 .data          0x00000000        0x0 c:/progra~2/gnuarm~1/102020~1/bin/../lib/gcc/arm-none-eabi/10.2.1/thumb/v7e-m+dp/hard/crtn.o
 .bss           0x00000000        0x0 c:/progra~2/gnuarm~1/102020~1/bin/../lib/gcc/arm-none-eabi/10.2.1/thumb/v7e-m+dp/hard/crtn.o

Memory Configuration

Name             Origin             Length             Attributes
RAM              0x24000000         0x00080000         xrw
ROM              0x08000000         0x00200000         xr
*default*        0x00000000         0xffffffff

Linker script and memory map

LOAD c:/progra~2/gnuarm~1/102020~1/bin/../lib/gcc/arm-none-eabi/10.2.1/thumb/v7e-m+dp/hard/crti.o
LOAD c:/progra~2/gnuarm~1/102020~1/bin/../lib/gcc/arm-none-eabi/10.2.1/thumb/v7e-m+dp/hard/crtbegin.o
LOAD c:/progra~2/gnuarm~1/102020~1/bin/../lib/gcc/arm-none-eabi/10.2.1/../../../../arm-none-eabi/lib/thumb/v7e-m+dp/hard/crt0.o
LOAD c:/progra~2/gnuarm~1/102020~1/bin/../lib/gcc/arm-none-eabi/10.2.1/../../../../arm-none-eabi/lib/thumb/v7e-m+dp/hard\libc_nano.a
LOAD c:/progra~2/gnuarm~1/102020~1/bin/../lib/gcc/arm-none-eabi/10.2.1/../../../../arm-none-eabi/lib/thumb/v7e-m+dp/hard\libm.a
LOAD c:/progra~2/gnuarm~1/102020~1/bin/../lib/gcc/arm-none-eabi/10.2.1/../../../../arm-none-eabi/lib/thumb/v7e-m+dp/hard\libnosys.a
LOAD device/CMakeFiles/DEVICE.dir/startup_stm32h743zitx.s.obj
LOAD device/CMakeFiles/DEVICE.dir/system_stm32h7xx.c.obj
LOAD CMakeFiles/CMAKE_Simple.elf.dir/src/main.c.obj
START GROUP
LOAD c:/progra~2/gnuarm~1/102020~1/bin/../lib/gcc/arm-none-eabi/10.2.1/thumb/v7e-m+dp/hard\libgcc.a
LOAD c:/progra~2/gnuarm~1/102020~1/bin/../lib/gcc/arm-none-eabi/10.2.1/../../../../arm-none-eabi/lib/thumb/v7e-m+dp/hard\libg_nano.a
LOAD c:/progra~2/gnuarm~1/102020~1/bin/../lib/gcc/arm-none-eabi/10.2.1/../../../../arm-none-eabi/lib/thumb/v7e-m+dp/hard\libc_nano.a
END GROUP
START GROUP
LOAD c:/progra~2/gnuarm~1/102020~1/bin/../lib/gcc/arm-none-eabi/10.2.1/thumb/v7e-m+dp/hard\libgcc.a
LOAD c:/progra~2/gnuarm~1/102020~1/bin/../lib/gcc/arm-none-eabi/10.2.1/../../../../arm-none-eabi/lib/thumb/v7e-m+dp/hard\libc_nano.a
END GROUP
LOAD c:/progra~2/gnuarm~1/102020~1/bin/../lib/gcc/arm-none-eabi/10.2.1/thumb/v7e-m+dp/hard/crtend.o
LOAD c:/progra~2/gnuarm~1/102020~1/bin/../lib/gcc/arm-none-eabi/10.2.1/thumb/v7e-m+dp/hard/crtn.o
                0x24080000                _estack = (ORIGIN (RAM) + LENGTH (RAM))
                0x00000200                _Min_Heap_Size = 0x200
                0x00000400                _Min_Stack_Size = 0x400

.isr_vector     0x08000000      0x2a0
                0x08000000                . = ALIGN (0x20)
 *(.isr_vector)
 .isr_vector    0x08000000      0x298 device/CMakeFiles/DEVICE.dir/startup_stm32h743zitx.s.obj
                0x08000000                g_pfnVectors
                0x080002a0                . = ALIGN (0x20)
 *fill*         0x08000298        0x8 

.text           0x080002a0      0x220
                0x080002a0                . = ALIGN (0x20)
 *(.text)
 .text          0x080002a0       0x40 c:/progra~2/gnuarm~1/102020~1/bin/../lib/gcc/arm-none-eabi/10.2.1/thumb/v7e-m+dp/hard/crtbegin.o
 *(.text*)
 .text.__libc_init_array
                0x080002e0       0x48 c:/progra~2/gnuarm~1/102020~1/bin/../lib/gcc/arm-none-eabi/10.2.1/../../../../arm-none-eabi/lib/thumb/v7e-m+dp/hard\libc_nano.a(lib_a-init.o)
                0x080002e0                __libc_init_array
 .text.Reset_Handler
                0x08000328       0x50 device/CMakeFiles/DEVICE.dir/startup_stm32h743zitx.s.obj
                0x08000328                Reset_Handler
 .text.Default_Handler
                0x08000378        0x2 device/CMakeFiles/DEVICE.dir/startup_stm32h743zitx.s.obj
                0x08000378                RTC_Alarm_IRQHandler
                0x08000378                EXTI2_IRQHandler
                0x08000378                TIM8_CC_IRQHandler
                0x08000378                HRTIM1_Master_IRQHandler
                0x08000378                DebugMon_Handler
                0x08000378                UART8_IRQHandler
                0x08000378                SPI4_IRQHandler
                0x08000378                TIM1_CC_IRQHandler
                0x08000378                BDMA_Channel6_IRQHandler
                0x08000378                DMA2_Stream5_IRQHandler
                0x08000378                HardFault_Handler
                0x08000378                HRTIM1_FLT_IRQHandler
                0x08000378                JPEG_IRQHandler
                0x08000378                DMA1_Stream5_IRQHandler
                0x08000378                SysTick_Handler
                0x08000378                BDMA_Channel1_IRQHandler
                0x08000378                HRTIM1_TIMD_IRQHandler
                0x08000378                TAMP_STAMP_IRQHandler
                0x08000378                PendSV_Handler
                0x08000378                NMI_Handler
                0x08000378                EXTI3_IRQHandler
                0x08000378                LPTIM4_IRQHandler
                0x08000378                TIM8_TRG_COM_TIM14_IRQHandler
                0x08000378                LPTIM2_IRQHandler
                0x08000378                DFSDM1_FLT1_IRQHandler
                0x08000378                DMAMUX2_OVR_IRQHandler
                0x08000378                TIM8_UP_TIM13_IRQHandler
                0x08000378                I2C3_ER_IRQHandler
                0x08000378                DFSDM1_FLT2_IRQHandler
                0x08000378                MDMA_IRQHandler
                0x08000378                LPTIM3_IRQHandler
                0x08000378                HSEM1_IRQHandler
                0x08000378                EXTI0_IRQHandler
                0x08000378                I2C2_EV_IRQHandler
                0x08000378                DMA1_Stream2_IRQHandler
                0x08000378                FPU_IRQHandler
                0x08000378                OTG_HS_WKUP_IRQHandler
                0x08000378                FDCAN1_IT1_IRQHandler
                0x08000378                UsageFault_Handler
                0x08000378                LTDC_ER_IRQHandler
                0x08000378                DMA2_Stream2_IRQHandler
                0x08000378                HRTIM1_TIME_IRQHandler
                0x08000378                SPI1_IRQHandler
                0x08000378                TIM6_DAC_IRQHandler
                0x08000378                DCMI_IRQHandler
                0x08000378                HRTIM1_TIMC_IRQHandler
                0x08000378                DMA2_Stream3_IRQHandler
                0x08000378                SAI2_IRQHandler
                0x08000378                DFSDM1_FLT3_IRQHandler
                0x08000378                USART6_IRQHandler
                0x08000378                TIM17_IRQHandler
                0x08000378                USART3_IRQHandler
                0x08000378                BDMA_Channel7_IRQHandler
                0x08000378                LPTIM5_IRQHandler
                0x08000378                UART5_IRQHandler
                0x08000378                ADC3_IRQHandler
                0x08000378                DMA2_Stream0_IRQHandler
                0x08000378                TIM4_IRQHandler
                0x08000378                BDMA_Channel2_IRQHandler
                0x08000378                QUADSPI_IRQHandler
                0x08000378                I2C1_EV_IRQHandler
                0x08000378                DMA1_Stream6_IRQHandler
                0x08000378                DMAMUX1_OVR_IRQHandler
                0x08000378                DMA1_Stream1_IRQHandler
                0x08000378                TIM16_IRQHandler
                0x08000378                UART4_IRQHandler
                0x08000378                BDMA_Channel5_IRQHandler
                0x08000378                TIM3_IRQHandler
                0x08000378                RCC_IRQHandler
                0x08000378                TIM8_BRK_TIM12_IRQHandler
                0x08000378                TIM1_TRG_COM_IRQHandler
                0x08000378                Default_Handler
                0x08000378                ECC_IRQHandler
                0x08000378                CEC_IRQHandler
                0x08000378                EXTI15_10_IRQHandler
                0x08000378                BDMA_Channel0_IRQHandler
                0x08000378                ADC_IRQHandler
                0x08000378                DMA1_Stream7_IRQHandler
                0x08000378                HRTIM1_TIMA_IRQHandler
                0x08000378                SPI5_IRQHandler
                0x08000378                TIM7_IRQHandler
                0x08000378                SDMMC1_IRQHandler
                0x08000378                TIM5_IRQHandler
                0x08000378                DMA2_Stream7_IRQHandler
                0x08000378                TIM15_IRQHandler
                0x08000378                PVD_AVD_IRQHandler
                0x08000378                I2C3_EV_IRQHandler
                0x08000378                EXTI9_5_IRQHandler
                0x08000378                RTC_WKUP_IRQHandler
                0x08000378                LTDC_IRQHandler
                0x08000378                SAI3_IRQHandler
                0x08000378                ETH_WKUP_IRQHandler
                0x08000378                SPDIF_RX_IRQHandler
                0x08000378                SPI2_IRQHandler
                0x08000378                OTG_HS_EP1_IN_IRQHandler
                0x08000378                MemManage_Handler
                0x08000378                DMA1_Stream0_IRQHandler
                0x08000378                SVC_Handler
                0x08000378                CRS_IRQHandler
                0x08000378                EXTI4_IRQHandler
                0x08000378                RNG_IRQHandler
                0x08000378                HRTIM1_TIMB_IRQHandler
                0x08000378                FDCAN2_IT1_IRQHandler
                0x08000378                ETH_IRQHandler
                0x08000378                TIM1_UP_IRQHandler
                0x08000378                BDMA_Channel4_IRQHandler
                0x08000378                OTG_HS_EP1_OUT_IRQHandler
                0x08000378                WWDG_IRQHandler
                0x08000378                SPI6_IRQHandler
                0x08000378                MDIOS_IRQHandler
                0x08000378                I2C4_EV_IRQHandler
                0x08000378                FDCAN2_IT0_IRQHandler
                0x08000378                LPUART1_IRQHandler
                0x08000378                FDCAN1_IT0_IRQHandler
                0x08000378                TIM2_IRQHandler
                0x08000378                OTG_FS_WKUP_IRQHandler
                0x08000378                OTG_HS_IRQHandler
                0x08000378                DMA2D_IRQHandler
                0x08000378                TIM1_BRK_IRQHandler
                0x08000378                EXTI1_IRQHandler
                0x08000378                SDMMC2_IRQHandler
                0x08000378                OTG_FS_EP1_OUT_IRQHandler
                0x08000378                BDMA_Channel3_IRQHandler
                0x08000378                UART7_IRQHandler
                0x08000378                MDIOS_WKUP_IRQHandler
                0x08000378                USART2_IRQHandler
                0x08000378                DFSDM1_FLT0_IRQHandler
                0x08000378                SAI4_IRQHandler
                0x08000378                I2C2_ER_IRQHandler
                0x08000378                DMA2_Stream1_IRQHandler
                0x08000378                FLASH_IRQHandler
                0x08000378                DMA2_Stream4_IRQHandler
                0x08000378                BusFault_Handler
                0x08000378                USART1_IRQHandler
                0x08000378                OTG_FS_IRQHandler
                0x08000378                SPI3_IRQHandler
                0x08000378                WAKEUP_PIN_IRQHandler
                0x08000378                DMA1_Stream4_IRQHandler
                0x08000378                OTG_FS_EP1_IN_IRQHandler
                0x08000378                I2C1_ER_IRQHandler
                0x08000378                FMC_IRQHandler
                0x08000378                FDCAN_CAL_IRQHandler
                0x08000378                SWPMI1_IRQHandler
                0x08000378                COMP1_IRQHandler
                0x08000378                LPTIM1_IRQHandler
                0x08000378                I2C4_ER_IRQHandler
                0x08000378                DMA2_Stream6_IRQHandler
                0x08000378                SAI1_IRQHandler
                0x08000378                DMA1_Stream3_IRQHandler
 *fill*         0x0800037a        0x2 
 .text.SystemInit
                0x0800037c      0x118 device/CMakeFiles/DEVICE.dir/system_stm32h7xx.c.obj
                0x0800037c                SystemInit
 .text.main     0x08000494       0x10 CMakeFiles/CMAKE_Simple.elf.dir/src/main.c.obj
                0x08000494                main
 *(.glue_7)
 .glue_7        0x080004a4        0x0 linker stubs
 *(.glue_7t)
 .glue_7t       0x080004a4        0x0 linker stubs
 *(.eh_frame)
 .eh_frame      0x080004a4        0x0 c:/progra~2/gnuarm~1/102020~1/bin/../lib/gcc/arm-none-eabi/10.2.1/thumb/v7e-m+dp/hard/crtbegin.o
 *(.init)
 .init          0x080004a4        0x4 c:/progra~2/gnuarm~1/102020~1/bin/../lib/gcc/arm-none-eabi/10.2.1/thumb/v7e-m+dp/hard/crti.o
                0x080004a4                _init
 .init          0x080004a8        0x8 c:/progra~2/gnuarm~1/102020~1/bin/../lib/gcc/arm-none-eabi/10.2.1/thumb/v7e-m+dp/hard/crtn.o
 *(.fini)
 .fini          0x080004b0        0x4 c:/progra~2/gnuarm~1/102020~1/bin/../lib/gcc/arm-none-eabi/10.2.1/thumb/v7e-m+dp/hard/crti.o
                0x080004b0                _fini
 .fini          0x080004b4        0x8 c:/progra~2/gnuarm~1/102020~1/bin/../lib/gcc/arm-none-eabi/10.2.1/thumb/v7e-m+dp/hard/crtn.o
                0x080004c0                . = ALIGN (0x20)
 *fill*         0x080004bc        0x4 
                0x080004c0                _etext = .

.vfp11_veneer   0x080004c0        0x0
 .vfp11_veneer  0x080004c0        0x0 linker stubs

.v4_bx          0x080004c0        0x0
 .v4_bx         0x080004c0        0x0 linker stubs

.iplt           0x080004c0        0x0
 .iplt          0x080004c0        0x0 c:/progra~2/gnuarm~1/102020~1/bin/../lib/gcc/arm-none-eabi/10.2.1/thumb/v7e-m+dp/hard/crtbegin.o

.rel.dyn        0x080004c0        0x0
 .rel.iplt      0x080004c0        0x0 c:/progra~2/gnuarm~1/102020~1/bin/../lib/gcc/arm-none-eabi/10.2.1/thumb/v7e-m+dp/hard/crtbegin.o

.rodata         0x080004c0        0x0
                0x080004c0                . = ALIGN (0x20)
 *(.rodata)
 *(.rodata*)
                0x080004c0                . = ALIGN (0x20)

.ARM.extab      0x080004c0        0x0
                0x080004c0                . = ALIGN (0x20)
 *(.ARM.extab* .gnu.linkonce.armextab.*)
                0x080004c0                . = ALIGN (0x20)

.ARM            0x080004c0        0x0
                0x080004c0                . = ALIGN (0x20)
                0x080004c0                __exidx_start = .
 *(.ARM.exidx*)
                0x080004c0                __exidx_end = .
                0x080004c0                . = ALIGN (0x20)

.preinit_array  0x080004c0        0x0
                0x080004c0                . = ALIGN (0x20)
                0x080004c0                PROVIDE (__preinit_array_start = .)
 *(.preinit_array*)
                0x080004c0                PROVIDE (__preinit_array_end = .)
                0x080004c0                . = ALIGN (0x20)

.init_array     0x080004c0       0x20
                0x080004c0                . = ALIGN (0x20)
                0x080004c0                PROVIDE (__init_array_start = .)
 *(SORT_BY_NAME(.init_array.*))
 *(.init_array*)
 .init_array    0x080004c0        0x4 c:/progra~2/gnuarm~1/102020~1/bin/../lib/gcc/arm-none-eabi/10.2.1/thumb/v7e-m+dp/hard/crtbegin.o
                0x080004c4                PROVIDE (__init_array_end = .)
                0x080004e0                . = ALIGN (0x20)
 *fill*         0x080004c4       0x1c 

.fini_array     0x080004e0       0x20
                0x080004e0                . = ALIGN (0x20)
                [!provide]                PROVIDE (__fini_array_start = .)
 *(SORT_BY_NAME(.fini_array.*))
 *(.fini_array*)
 .fini_array    0x080004e0        0x4 c:/progra~2/gnuarm~1/102020~1/bin/../lib/gcc/arm-none-eabi/10.2.1/thumb/v7e-m+dp/hard/crtbegin.o
                [!provide]                PROVIDE (__fini_array_end = .)
                0x08000500                . = ALIGN (0x20)
 *fill*         0x080004e4       0x1c 
                0x08000500                _sidata = LOADADDR (.data)

.data           0x24000000        0x0 load address 0x08000500
                0x24000000                . = ALIGN (0x20)
                0x24000000                _sdata = .
 *(.data)
 *(.data*)
                0x24000000                . = ALIGN (0x20)
                0x24000000                _edata = .

.igot.plt       0x24000000        0x0 load address 0x08000500
 .igot.plt      0x24000000        0x0 c:/progra~2/gnuarm~1/102020~1/bin/../lib/gcc/arm-none-eabi/10.2.1/thumb/v7e-m+dp/hard/crtbegin.o
                0x24000000                . = ALIGN (0x20)

.bss            0x24000000       0x20 load address 0x08000500
                0x24000000                _sbss = .
                0x24000000                __bss_start__ = _sbss
 *(.bss)
 .bss           0x24000000       0x1c c:/progra~2/gnuarm~1/102020~1/bin/../lib/gcc/arm-none-eabi/10.2.1/thumb/v7e-m+dp/hard/crtbegin.o
 *(.bss*)
 *(COMMON)
                0x24000020                . = ALIGN (0x20)
 *fill*         0x2400001c        0x4 
                0x24000020                _ebss = .
                0x24000020                __bss_end__ = _ebss

._user_heap_stack
                0x24000020      0x600 load address 0x08000500
                0x24000020                . = ALIGN (0x8)
                [!provide]                PROVIDE (end = .)
                [!provide]                PROVIDE (_end = .)
                0x24000220                . = (. + _Min_Heap_Size)
 *fill*         0x24000020      0x200 
                0x24000620                . = (. + _Min_Stack_Size)
 *fill*         0x24000220      0x400 
                0x24000620                . = ALIGN (0x8)

/DISCARD/
 libc.a(*)
 libm.a(*)
 libgcc.a(*)

.ARM.attributes
                0x00000000       0x2e
 *(.ARM.attributes)
 .ARM.attributes
                0x00000000       0x1e c:/progra~2/gnuarm~1/102020~1/bin/../lib/gcc/arm-none-eabi/10.2.1/thumb/v7e-m+dp/hard/crti.o
 .ARM.attributes
                0x0000001e       0x32 c:/progra~2/gnuarm~1/102020~1/bin/../lib/gcc/arm-none-eabi/10.2.1/thumb/v7e-m+dp/hard/crtbegin.o
 .ARM.attributes
                0x00000050       0x32 c:/progra~2/gnuarm~1/102020~1/bin/../lib/gcc/arm-none-eabi/10.2.1/../../../../arm-none-eabi/lib/thumb/v7e-m+dp/hard\libc_nano.a(lib_a-init.o)
 .ARM.attributes
                0x00000082       0x21 device/CMakeFiles/DEVICE.dir/startup_stm32h743zitx.s.obj
 .ARM.attributes
                0x000000a3       0x32 device/CMakeFiles/DEVICE.dir/system_stm32h7xx.c.obj
 .ARM.attributes
                0x000000d5       0x32 CMakeFiles/CMAKE_Simple.elf.dir/src/main.c.obj
 .ARM.attributes
                0x00000107       0x1e c:/progra~2/gnuarm~1/102020~1/bin/../lib/gcc/arm-none-eabi/10.2.1/thumb/v7e-m+dp/hard/crtn.o
OUTPUT(CMAKE_Simple.elf elf32-littlearm)
LOAD linker stubs
LOAD c:/progra~2/gnuarm~1/102020~1/bin/../lib/gcc/arm-none-eabi/10.2.1/../../../../arm-none-eabi/lib/thumb/v7e-m+dp/hard\libc.a
LOAD c:/progra~2/gnuarm~1/102020~1/bin/../lib/gcc/arm-none-eabi/10.2.1/../../../../arm-none-eabi/lib/thumb/v7e-m+dp/hard\libm.a
LOAD c:/progra~2/gnuarm~1/102020~1/bin/../lib/gcc/arm-none-eabi/10.2.1/thumb/v7e-m+dp/hard\libgcc.a

.debug_frame    0x00000000       0xb4
 .debug_frame   0x00000000       0x2c c:/progra~2/gnuarm~1/102020~1/bin/../lib/gcc/arm-none-eabi/10.2.1/../../../../arm-none-eabi/lib/thumb/v7e-m+dp/hard\libc_nano.a(lib_a-init.o)
 .debug_frame   0x0000002c       0x58 device/CMakeFiles/DEVICE.dir/system_stm32h7xx.c.obj
 .debug_frame   0x00000084       0x30 CMakeFiles/CMAKE_Simple.elf.dir/src/main.c.obj

.debug_line     0x00000000      0x83d
 .debug_line    0x00000000       0x82 device/CMakeFiles/DEVICE.dir/startup_stm32h743zitx.s.obj
 .debug_line    0x00000082      0x778 device/CMakeFiles/DEVICE.dir/system_stm32h7xx.c.obj
 .debug_line    0x000007fa       0x43 CMakeFiles/CMAKE_Simple.elf.dir/src/main.c.obj

.debug_info     0x00000000      0xd69
 .debug_info    0x00000000       0x22 device/CMakeFiles/DEVICE.dir/startup_stm32h743zitx.s.obj
 .debug_info    0x00000022      0xd00 device/CMakeFiles/DEVICE.dir/system_stm32h7xx.c.obj
 .debug_info    0x00000d22       0x47 CMakeFiles/CMAKE_Simple.elf.dir/src/main.c.obj

.debug_abbrev   0x00000000      0x197
 .debug_abbrev  0x00000000       0x12 device/CMakeFiles/DEVICE.dir/startup_stm32h743zitx.s.obj
 .debug_abbrev  0x00000012      0x147 device/CMakeFiles/DEVICE.dir/system_stm32h7xx.c.obj
 .debug_abbrev  0x00000159       0x3e CMakeFiles/CMAKE_Simple.elf.dir/src/main.c.obj

.debug_aranges  0x00000000       0x70
 .debug_aranges
                0x00000000       0x28 device/CMakeFiles/DEVICE.dir/startup_stm32h743zitx.s.obj
 .debug_aranges
                0x00000028       0x28 device/CMakeFiles/DEVICE.dir/system_stm32h7xx.c.obj
 .debug_aranges
                0x00000050       0x20 CMakeFiles/CMAKE_Simple.elf.dir/src/main.c.obj

.debug_str      0x00000000   0x154bc8
 .debug_str     0x00000000       0x63 device/CMakeFiles/DEVICE.dir/startup_stm32h743zitx.s.obj
 .debug_str     0x00000063   0x154b52 device/CMakeFiles/DEVICE.dir/system_stm32h7xx.c.obj
                             0x154fb8 (size before relaxing)
 .debug_str     0x00154bb5       0x13 CMakeFiles/CMAKE_Simple.elf.dir/src/main.c.obj
                               0x2cf8 (size before relaxing)

.debug_ranges   0x00000000       0x48
 .debug_ranges  0x00000000       0x20 device/CMakeFiles/DEVICE.dir/startup_stm32h743zitx.s.obj
 .debug_ranges  0x00000020       0x18 device/CMakeFiles/DEVICE.dir/system_stm32h7xx.c.obj
 .debug_ranges  0x00000038       0x10 CMakeFiles/CMAKE_Simple.elf.dir/src/main.c.obj

.debug_macro    0x00000000    0x33c62
 .debug_macro   0x00000000      0x2c2 device/CMakeFiles/DEVICE.dir/system_stm32h7xx.c.obj
 .debug_macro   0x000002c2      0xa8a device/CMakeFiles/DEVICE.dir/system_stm32h7xx.c.obj
 .debug_macro   0x00000d4c       0x2e device/CMakeFiles/DEVICE.dir/system_stm32h7xx.c.obj
 .debug_macro   0x00000d7a       0x3b device/CMakeFiles/DEVICE.dir/system_stm32h7xx.c.obj
 .debug_macro   0x00000db5       0x22 device/CMakeFiles/DEVICE.dir/system_stm32h7xx.c.obj
 .debug_macro   0x00000dd7       0x56 device/CMakeFiles/DEVICE.dir/system_stm32h7xx.c.obj
 .debug_macro   0x00000e2d       0x51 device/CMakeFiles/DEVICE.dir/system_stm32h7xx.c.obj
 .debug_macro   0x00000e7e      0x103 device/CMakeFiles/DEVICE.dir/system_stm32h7xx.c.obj
 .debug_macro   0x00000f81       0x6a device/CMakeFiles/DEVICE.dir/system_stm32h7xx.c.obj
 .debug_macro   0x00000feb      0x1df device/CMakeFiles/DEVICE.dir/system_stm32h7xx.c.obj
 .debug_macro   0x000011ca       0x1c device/CMakeFiles/DEVICE.dir/system_stm32h7xx.c.obj
 .debug_macro   0x000011e6       0x22 device/CMakeFiles/DEVICE.dir/system_stm32h7xx.c.obj
 .debug_macro   0x00001208       0xfb device/CMakeFiles/DEVICE.dir/system_stm32h7xx.c.obj
 .debug_macro   0x00001303     0x1305 device/CMakeFiles/DEVICE.dir/system_stm32h7xx.c.obj
 .debug_macro   0x00002608      0x11f device/CMakeFiles/DEVICE.dir/system_stm32h7xx.c.obj
 .debug_macro   0x00002727       0x27 device/CMakeFiles/DEVICE.dir/system_stm32h7xx.c.obj
 .debug_macro   0x0000274e    0x253d1 device/CMakeFiles/DEVICE.dir/system_stm32h7xx.c.obj
 .debug_macro   0x00027b1f       0x43 device/CMakeFiles/DEVICE.dir/system_stm32h7xx.c.obj
 .debug_macro   0x00027b62      0x23e device/CMakeFiles/DEVICE.dir/system_stm32h7xx.c.obj
 .debug_macro   0x00027da0     0x3cd3 device/CMakeFiles/DEVICE.dir/system_stm32h7xx.c.obj
 .debug_macro   0x0002ba73      0x16d device/CMakeFiles/DEVICE.dir/system_stm32h7xx.c.obj
 .debug_macro   0x0002bbe0       0x64 device/CMakeFiles/DEVICE.dir/system_stm32h7xx.c.obj
 .debug_macro   0x0002bc44       0x17 device/CMakeFiles/DEVICE.dir/system_stm32h7xx.c.obj
 .debug_macro   0x0002bc5b       0x35 device/CMakeFiles/DEVICE.dir/system_stm32h7xx.c.obj
 .debug_macro   0x0002bc90       0x34 device/CMakeFiles/DEVICE.dir/system_stm32h7xx.c.obj
 .debug_macro   0x0002bcc4       0x16 device/CMakeFiles/DEVICE.dir/system_stm32h7xx.c.obj
 .debug_macro   0x0002bcda       0x43 device/CMakeFiles/DEVICE.dir/system_stm32h7xx.c.obj
 .debug_macro   0x0002bd1d       0x34 device/CMakeFiles/DEVICE.dir/system_stm32h7xx.c.obj
 .debug_macro   0x0002bd51       0x10 device/CMakeFiles/DEVICE.dir/system_stm32h7xx.c.obj
 .debug_macro   0x0002bd61       0x58 device/CMakeFiles/DEVICE.dir/system_stm32h7xx.c.obj
 .debug_macro   0x0002bdb9      0x182 device/CMakeFiles/DEVICE.dir/system_stm32h7xx.c.obj
 .debug_macro   0x0002bf3b      0x356 device/CMakeFiles/DEVICE.dir/system_stm32h7xx.c.obj
 .debug_macro   0x0002c291       0xde device/CMakeFiles/DEVICE.dir/system_stm32h7xx.c.obj
 .debug_macro   0x0002c36f       0x5d device/CMakeFiles/DEVICE.dir/system_stm32h7xx.c.obj
 .debug_macro   0x0002c3cc     0x2382 device/CMakeFiles/DEVICE.dir/system_stm32h7xx.c.obj
 .debug_macro   0x0002e74e     0x1002 device/CMakeFiles/DEVICE.dir/system_stm32h7xx.c.obj
 .debug_macro   0x0002f750      0x14d device/CMakeFiles/DEVICE.dir/system_stm32h7xx.c.obj
 .debug_macro   0x0002f89d      0x117 device/CMakeFiles/DEVICE.dir/system_stm32h7xx.c.obj
 .debug_macro   0x0002f9b4      0x3b2 device/CMakeFiles/DEVICE.dir/system_stm32h7xx.c.obj
 .debug_macro   0x0002fd66       0x27 device/CMakeFiles/DEVICE.dir/system_stm32h7xx.c.obj
 .debug_macro   0x0002fd8d      0x72d device/CMakeFiles/DEVICE.dir/system_stm32h7xx.c.obj
 .debug_macro   0x000304ba      0x229 device/CMakeFiles/DEVICE.dir/system_stm32h7xx.c.obj
 .debug_macro   0x000306e3       0x66 device/CMakeFiles/DEVICE.dir/system_stm32h7xx.c.obj
 .debug_macro   0x00030749      0x3bb device/CMakeFiles/DEVICE.dir/system_stm32h7xx.c.obj
 .debug_macro   0x00030b04      0xa59 device/CMakeFiles/DEVICE.dir/system_stm32h7xx.c.obj
 .debug_macro   0x0003155d      0x129 device/CMakeFiles/DEVICE.dir/system_stm32h7xx.c.obj
 .debug_macro   0x00031686      0x3e5 device/CMakeFiles/DEVICE.dir/system_stm32h7xx.c.obj
 .debug_macro   0x00031a6b      0x275 device/CMakeFiles/DEVICE.dir/system_stm32h7xx.c.obj
 .debug_macro   0x00031ce0      0x3cb device/CMakeFiles/DEVICE.dir/system_stm32h7xx.c.obj
 .debug_macro   0x000320ab      0x408 device/CMakeFiles/DEVICE.dir/system_stm32h7xx.c.obj
 .debug_macro   0x000324b3       0x51 device/CMakeFiles/DEVICE.dir/system_stm32h7xx.c.obj
 .debug_macro   0x00032504       0x4a device/CMakeFiles/DEVICE.dir/system_stm32h7xx.c.obj
 .debug_macro   0x0003254e      0x22c device/CMakeFiles/DEVICE.dir/system_stm32h7xx.c.obj
 .debug_macro   0x0003277a       0x67 device/CMakeFiles/DEVICE.dir/system_stm32h7xx.c.obj
 .debug_macro   0x000327e1       0xa5 device/CMakeFiles/DEVICE.dir/system_stm32h7xx.c.obj
 .debug_macro   0x00032886      0x1c5 device/CMakeFiles/DEVICE.dir/system_stm32h7xx.c.obj
 .debug_macro   0x00032a4b      0x25f device/CMakeFiles/DEVICE.dir/system_stm32h7xx.c.obj
 .debug_macro   0x00032caa       0x35 device/CMakeFiles/DEVICE.dir/system_stm32h7xx.c.obj
 .debug_macro   0x00032cdf      0x67e device/CMakeFiles/DEVICE.dir/system_stm32h7xx.c.obj
 .debug_macro   0x0003335d       0xa6 device/CMakeFiles/DEVICE.dir/system_stm32h7xx.c.obj
 .debug_macro   0x00033403      0x21e device/CMakeFiles/DEVICE.dir/system_stm32h7xx.c.obj
 .debug_macro   0x00033621       0x90 device/CMakeFiles/DEVICE.dir/system_stm32h7xx.c.obj
 .debug_macro   0x000336b1      0x5a0 device/CMakeFiles/DEVICE.dir/system_stm32h7xx.c.obj
 .debug_macro   0x00033c51       0x11 CMakeFiles/CMAKE_Simple.elf.dir/src/main.c.obj

.comment        0x00000000       0x4d
 .comment       0x00000000       0x4d device/CMakeFiles/DEVICE.dir/system_stm32h7xx.c.obj
                                 0x4e (size before relaxing)
 .comment       0x0000004d       0x4e CMakeFiles/CMAKE_Simple.elf.dir/src/main.c.obj

Cross Reference Table

Symbol                                            File
ADC3_IRQHandler                                   device/CMakeFiles/DEVICE.dir/startup_stm32h743zitx.s.obj
ADC_IRQHandler                                    device/CMakeFiles/DEVICE.dir/startup_stm32h743zitx.s.obj
BDMA_Channel0_IRQHandler                          device/CMakeFiles/DEVICE.dir/startup_stm32h743zitx.s.obj
BDMA_Channel1_IRQHandler                          device/CMakeFiles/DEVICE.dir/startup_stm32h743zitx.s.obj
BDMA_Channel2_IRQHandler                          device/CMakeFiles/DEVICE.dir/startup_stm32h743zitx.s.obj
BDMA_Channel3_IRQHandler                          device/CMakeFiles/DEVICE.dir/startup_stm32h743zitx.s.obj
BDMA_Channel4_IRQHandler                          device/CMakeFiles/DEVICE.dir/startup_stm32h743zitx.s.obj
BDMA_Channel5_IRQHandler                          device/CMakeFiles/DEVICE.dir/startup_stm32h743zitx.s.obj
BDMA_Channel6_IRQHandler                          device/CMakeFiles/DEVICE.dir/startup_stm32h743zitx.s.obj
BDMA_Channel7_IRQHandler                          device/CMakeFiles/DEVICE.dir/startup_stm32h743zitx.s.obj
BusFault_Handler                                  device/CMakeFiles/DEVICE.dir/startup_stm32h743zitx.s.obj
CEC_IRQHandler                                    device/CMakeFiles/DEVICE.dir/startup_stm32h743zitx.s.obj
COMP1_IRQHandler                                  device/CMakeFiles/DEVICE.dir/startup_stm32h743zitx.s.obj
CRS_IRQHandler                                    device/CMakeFiles/DEVICE.dir/startup_stm32h743zitx.s.obj
D1CorePrescTable                                  device/CMakeFiles/DEVICE.dir/system_stm32h7xx.c.obj
DCMI_IRQHandler                                   device/CMakeFiles/DEVICE.dir/startup_stm32h743zitx.s.obj
DFSDM1_FLT0_IRQHandler                            device/CMakeFiles/DEVICE.dir/startup_stm32h743zitx.s.obj
DFSDM1_FLT1_IRQHandler                            device/CMakeFiles/DEVICE.dir/startup_stm32h743zitx.s.obj
DFSDM1_FLT2_IRQHandler                            device/CMakeFiles/DEVICE.dir/startup_stm32h743zitx.s.obj
DFSDM1_FLT3_IRQHandler                            device/CMakeFiles/DEVICE.dir/startup_stm32h743zitx.s.obj
DMA1_Stream0_IRQHandler                           device/CMakeFiles/DEVICE.dir/startup_stm32h743zitx.s.obj
DMA1_Stream1_IRQHandler                           device/CMakeFiles/DEVICE.dir/startup_stm32h743zitx.s.obj
DMA1_Stream2_IRQHandler                           device/CMakeFiles/DEVICE.dir/startup_stm32h743zitx.s.obj
DMA1_Stream3_IRQHandler                           device/CMakeFiles/DEVICE.dir/startup_stm32h743zitx.s.obj
DMA1_Stream4_IRQHandler                           device/CMakeFiles/DEVICE.dir/startup_stm32h743zitx.s.obj
DMA1_Stream5_IRQHandler                           device/CMakeFiles/DEVICE.dir/startup_stm32h743zitx.s.obj
DMA1_Stream6_IRQHandler                           device/CMakeFiles/DEVICE.dir/startup_stm32h743zitx.s.obj
DMA1_Stream7_IRQHandler                           device/CMakeFiles/DEVICE.dir/startup_stm32h743zitx.s.obj
DMA2D_IRQHandler                                  device/CMakeFiles/DEVICE.dir/startup_stm32h743zitx.s.obj
DMA2_Stream0_IRQHandler                           device/CMakeFiles/DEVICE.dir/startup_stm32h743zitx.s.obj
DMA2_Stream1_IRQHandler                           device/CMakeFiles/DEVICE.dir/startup_stm32h743zitx.s.obj
DMA2_Stream2_IRQHandler                           device/CMakeFiles/DEVICE.dir/startup_stm32h743zitx.s.obj
DMA2_Stream3_IRQHandler                           device/CMakeFiles/DEVICE.dir/startup_stm32h743zitx.s.obj
DMA2_Stream4_IRQHandler                           device/CMakeFiles/DEVICE.dir/startup_stm32h743zitx.s.obj
DMA2_Stream5_IRQHandler                           device/CMakeFiles/DEVICE.dir/startup_stm32h743zitx.s.obj
DMA2_Stream6_IRQHandler                           device/CMakeFiles/DEVICE.dir/startup_stm32h743zitx.s.obj
DMA2_Stream7_IRQHandler                           device/CMakeFiles/DEVICE.dir/startup_stm32h743zitx.s.obj
DMAMUX1_OVR_IRQHandler                            device/CMakeFiles/DEVICE.dir/startup_stm32h743zitx.s.obj
DMAMUX2_OVR_IRQHandler                            device/CMakeFiles/DEVICE.dir/startup_stm32h743zitx.s.obj
DebugMon_Handler                                  device/CMakeFiles/DEVICE.dir/startup_stm32h743zitx.s.obj
Default_Handler                                   device/CMakeFiles/DEVICE.dir/startup_stm32h743zitx.s.obj
ECC_IRQHandler                                    device/CMakeFiles/DEVICE.dir/startup_stm32h743zitx.s.obj
ETH_IRQHandler                                    device/CMakeFiles/DEVICE.dir/startup_stm32h743zitx.s.obj
ETH_WKUP_IRQHandler                               device/CMakeFiles/DEVICE.dir/startup_stm32h743zitx.s.obj
EXTI0_IRQHandler                                  device/CMakeFiles/DEVICE.dir/startup_stm32h743zitx.s.obj
EXTI15_10_IRQHandler                              device/CMakeFiles/DEVICE.dir/startup_stm32h743zitx.s.obj
EXTI1_IRQHandler                                  device/CMakeFiles/DEVICE.dir/startup_stm32h743zitx.s.obj
EXTI2_IRQHandler                                  device/CMakeFiles/DEVICE.dir/startup_stm32h743zitx.s.obj
EXTI3_IRQHandler                                  device/CMakeFiles/DEVICE.dir/startup_stm32h743zitx.s.obj
EXTI4_IRQHandler                                  device/CMakeFiles/DEVICE.dir/startup_stm32h743zitx.s.obj
EXTI9_5_IRQHandler                                device/CMakeFiles/DEVICE.dir/startup_stm32h743zitx.s.obj
FDCAN1_IT0_IRQHandler                             device/CMakeFiles/DEVICE.dir/startup_stm32h743zitx.s.obj
FDCAN1_IT1_IRQHandler                             device/CMakeFiles/DEVICE.dir/startup_stm32h743zitx.s.obj
FDCAN2_IT0_IRQHandler                             device/CMakeFiles/DEVICE.dir/startup_stm32h743zitx.s.obj
FDCAN2_IT1_IRQHandler                             device/CMakeFiles/DEVICE.dir/startup_stm32h743zitx.s.obj
FDCAN_CAL_IRQHandler                              device/CMakeFiles/DEVICE.dir/startup_stm32h743zitx.s.obj
FLASH_IRQHandler                                  device/CMakeFiles/DEVICE.dir/startup_stm32h743zitx.s.obj
FMC_IRQHandler                                    device/CMakeFiles/DEVICE.dir/startup_stm32h743zitx.s.obj
FPU_IRQHandler                                    device/CMakeFiles/DEVICE.dir/startup_stm32h743zitx.s.obj
HRTIM1_FLT_IRQHandler                             device/CMakeFiles/DEVICE.dir/startup_stm32h743zitx.s.obj
HRTIM1_Master_IRQHandler                          device/CMakeFiles/DEVICE.dir/startup_stm32h743zitx.s.obj
HRTIM1_TIMA_IRQHandler                            device/CMakeFiles/DEVICE.dir/startup_stm32h743zitx.s.obj
HRTIM1_TIMB_IRQHandler                            device/CMakeFiles/DEVICE.dir/startup_stm32h743zitx.s.obj
HRTIM1_TIMC_IRQHandler                            device/CMakeFiles/DEVICE.dir/startup_stm32h743zitx.s.obj
HRTIM1_TIMD_IRQHandler                            device/CMakeFiles/DEVICE.dir/startup_stm32h743zitx.s.obj
HRTIM1_TIME_IRQHandler                            device/CMakeFiles/DEVICE.dir/startup_stm32h743zitx.s.obj
HSEM1_IRQHandler                                  device/CMakeFiles/DEVICE.dir/startup_stm32h743zitx.s.obj
HardFault_Handler                                 device/CMakeFiles/DEVICE.dir/startup_stm32h743zitx.s.obj
I2C1_ER_IRQHandler                                device/CMakeFiles/DEVICE.dir/startup_stm32h743zitx.s.obj
I2C1_EV_IRQHandler                                device/CMakeFiles/DEVICE.dir/startup_stm32h743zitx.s.obj
I2C2_ER_IRQHandler                                device/CMakeFiles/DEVICE.dir/startup_stm32h743zitx.s.obj
I2C2_EV_IRQHandler                                device/CMakeFiles/DEVICE.dir/startup_stm32h743zitx.s.obj
I2C3_ER_IRQHandler                                device/CMakeFiles/DEVICE.dir/startup_stm32h743zitx.s.obj
I2C3_EV_IRQHandler                                device/CMakeFiles/DEVICE.dir/startup_stm32h743zitx.s.obj
I2C4_ER_IRQHandler                                device/CMakeFiles/DEVICE.dir/startup_stm32h743zitx.s.obj
I2C4_EV_IRQHandler                                device/CMakeFiles/DEVICE.dir/startup_stm32h743zitx.s.obj
JPEG_IRQHandler                                   device/CMakeFiles/DEVICE.dir/startup_stm32h743zitx.s.obj
LPTIM1_IRQHandler                                 device/CMakeFiles/DEVICE.dir/startup_stm32h743zitx.s.obj
LPTIM2_IRQHandler                                 device/CMakeFiles/DEVICE.dir/startup_stm32h743zitx.s.obj
LPTIM3_IRQHandler                                 device/CMakeFiles/DEVICE.dir/startup_stm32h743zitx.s.obj
LPTIM4_IRQHandler                                 device/CMakeFiles/DEVICE.dir/startup_stm32h743zitx.s.obj
LPTIM5_IRQHandler                                 device/CMakeFiles/DEVICE.dir/startup_stm32h743zitx.s.obj
LPUART1_IRQHandler                                device/CMakeFiles/DEVICE.dir/startup_stm32h743zitx.s.obj
LTDC_ER_IRQHandler                                device/CMakeFiles/DEVICE.dir/startup_stm32h743zitx.s.obj
LTDC_IRQHandler                                   device/CMakeFiles/DEVICE.dir/startup_stm32h743zitx.s.obj
MDIOS_IRQHandler                                  device/CMakeFiles/DEVICE.dir/startup_stm32h743zitx.s.obj
MDIOS_WKUP_IRQHandler                             device/CMakeFiles/DEVICE.dir/startup_stm32h743zitx.s.obj
MDMA_IRQHandler                                   device/CMakeFiles/DEVICE.dir/startup_stm32h743zitx.s.obj
MemManage_Handler                                 device/CMakeFiles/DEVICE.dir/startup_stm32h743zitx.s.obj
NMI_Handler                                       device/CMakeFiles/DEVICE.dir/startup_stm32h743zitx.s.obj
OTG_FS_EP1_IN_IRQHandler                          device/CMakeFiles/DEVICE.dir/startup_stm32h743zitx.s.obj
OTG_FS_EP1_OUT_IRQHandler                         device/CMakeFiles/DEVICE.dir/startup_stm32h743zitx.s.obj
OTG_FS_IRQHandler                                 device/CMakeFiles/DEVICE.dir/startup_stm32h743zitx.s.obj
OTG_FS_WKUP_IRQHandler                            device/CMakeFiles/DEVICE.dir/startup_stm32h743zitx.s.obj
OTG_HS_EP1_IN_IRQHandler                          device/CMakeFiles/DEVICE.dir/startup_stm32h743zitx.s.obj
OTG_HS_EP1_OUT_IRQHandler                         device/CMakeFiles/DEVICE.dir/startup_stm32h743zitx.s.obj
OTG_HS_IRQHandler                                 device/CMakeFiles/DEVICE.dir/startup_stm32h743zitx.s.obj
OTG_HS_WKUP_IRQHandler                            device/CMakeFiles/DEVICE.dir/startup_stm32h743zitx.s.obj
PVD_AVD_IRQHandler                                device/CMakeFiles/DEVICE.dir/startup_stm32h743zitx.s.obj
PendSV_Handler                                    device/CMakeFiles/DEVICE.dir/startup_stm32h743zitx.s.obj
QUADSPI_IRQHandler                                device/CMakeFiles/DEVICE.dir/startup_stm32h743zitx.s.obj
RCC_IRQHandler                                    device/CMakeFiles/DEVICE.dir/startup_stm32h743zitx.s.obj
RNG_IRQHandler                                    device/CMakeFiles/DEVICE.dir/startup_stm32h743zitx.s.obj
RTC_Alarm_IRQHandler                              device/CMakeFiles/DEVICE.dir/startup_stm32h743zitx.s.obj
RTC_WKUP_IRQHandler                               device/CMakeFiles/DEVICE.dir/startup_stm32h743zitx.s.obj
Reset_Handler                                     device/CMakeFiles/DEVICE.dir/startup_stm32h743zitx.s.obj
SAI1_IRQHandler                                   device/CMakeFiles/DEVICE.dir/startup_stm32h743zitx.s.obj
SAI2_IRQHandler                                   device/CMakeFiles/DEVICE.dir/startup_stm32h743zitx.s.obj
SAI3_IRQHandler                                   device/CMakeFiles/DEVICE.dir/startup_stm32h743zitx.s.obj
SAI4_IRQHandler                                   device/CMakeFiles/DEVICE.dir/startup_stm32h743zitx.s.obj
SDMMC1_IRQHandler                                 device/CMakeFiles/DEVICE.dir/startup_stm32h743zitx.s.obj
SDMMC2_IRQHandler                                 device/CMakeFiles/DEVICE.dir/startup_stm32h743zitx.s.obj
SPDIF_RX_IRQHandler                               device/CMakeFiles/DEVICE.dir/startup_stm32h743zitx.s.obj
SPI1_IRQHandler                                   device/CMakeFiles/DEVICE.dir/startup_stm32h743zitx.s.obj
SPI2_IRQHandler                                   device/CMakeFiles/DEVICE.dir/startup_stm32h743zitx.s.obj
SPI3_IRQHandler                                   device/CMakeFiles/DEVICE.dir/startup_stm32h743zitx.s.obj
SPI4_IRQHandler                                   device/CMakeFiles/DEVICE.dir/startup_stm32h743zitx.s.obj
SPI5_IRQHandler                                   device/CMakeFiles/DEVICE.dir/startup_stm32h743zitx.s.obj
SPI6_IRQHandler                                   device/CMakeFiles/DEVICE.dir/startup_stm32h743zitx.s.obj
SVC_Handler                                       device/CMakeFiles/DEVICE.dir/startup_stm32h743zitx.s.obj
SWPMI1_IRQHandler                                 device/CMakeFiles/DEVICE.dir/startup_stm32h743zitx.s.obj
SysTick_Handler                                   device/CMakeFiles/DEVICE.dir/startup_stm32h743zitx.s.obj
SystemCoreClock                                   device/CMakeFiles/DEVICE.dir/system_stm32h7xx.c.obj
SystemCoreClockUpdate                             device/CMakeFiles/DEVICE.dir/system_stm32h7xx.c.obj
SystemD2Clock                                     device/CMakeFiles/DEVICE.dir/system_stm32h7xx.c.obj
SystemInit                                        device/CMakeFiles/DEVICE.dir/system_stm32h7xx.c.obj
                                                  device/CMakeFiles/DEVICE.dir/startup_stm32h743zitx.s.obj
TAMP_STAMP_IRQHandler                             device/CMakeFiles/DEVICE.dir/startup_stm32h743zitx.s.obj
TIM15_IRQHandler                                  device/CMakeFiles/DEVICE.dir/startup_stm32h743zitx.s.obj
TIM16_IRQHandler                                  device/CMakeFiles/DEVICE.dir/startup_stm32h743zitx.s.obj
TIM17_IRQHandler                                  device/CMakeFiles/DEVICE.dir/startup_stm32h743zitx.s.obj
TIM1_BRK_IRQHandler                               device/CMakeFiles/DEVICE.dir/startup_stm32h743zitx.s.obj
TIM1_CC_IRQHandler                                device/CMakeFiles/DEVICE.dir/startup_stm32h743zitx.s.obj
TIM1_TRG_COM_IRQHandler                           device/CMakeFiles/DEVICE.dir/startup_stm32h743zitx.s.obj
TIM1_UP_IRQHandler                                device/CMakeFiles/DEVICE.dir/startup_stm32h743zitx.s.obj
TIM2_IRQHandler                                   device/CMakeFiles/DEVICE.dir/startup_stm32h743zitx.s.obj
TIM3_IRQHandler                                   device/CMakeFiles/DEVICE.dir/startup_stm32h743zitx.s.obj
TIM4_IRQHandler                                   device/CMakeFiles/DEVICE.dir/startup_stm32h743zitx.s.obj
TIM5_IRQHandler                                   device/CMakeFiles/DEVICE.dir/startup_stm32h743zitx.s.obj
TIM6_DAC_IRQHandler                               device/CMakeFiles/DEVICE.dir/startup_stm32h743zitx.s.obj
TIM7_IRQHandler                                   device/CMakeFiles/DEVICE.dir/startup_stm32h743zitx.s.obj
TIM8_BRK_TIM12_IRQHandler                         device/CMakeFiles/DEVICE.dir/startup_stm32h743zitx.s.obj
TIM8_CC_IRQHandler                                device/CMakeFiles/DEVICE.dir/startup_stm32h743zitx.s.obj
TIM8_TRG_COM_TIM14_IRQHandler                     device/CMakeFiles/DEVICE.dir/startup_stm32h743zitx.s.obj
TIM8_UP_TIM13_IRQHandler                          device/CMakeFiles/DEVICE.dir/startup_stm32h743zitx.s.obj
UART4_IRQHandler                                  device/CMakeFiles/DEVICE.dir/startup_stm32h743zitx.s.obj
UART5_IRQHandler                                  device/CMakeFiles/DEVICE.dir/startup_stm32h743zitx.s.obj
UART7_IRQHandler                                  device/CMakeFiles/DEVICE.dir/startup_stm32h743zitx.s.obj
UART8_IRQHandler                                  device/CMakeFiles/DEVICE.dir/startup_stm32h743zitx.s.obj
USART1_IRQHandler                                 device/CMakeFiles/DEVICE.dir/startup_stm32h743zitx.s.obj
USART2_IRQHandler                                 device/CMakeFiles/DEVICE.dir/startup_stm32h743zitx.s.obj
USART3_IRQHandler                                 device/CMakeFiles/DEVICE.dir/startup_stm32h743zitx.s.obj
USART6_IRQHandler                                 device/CMakeFiles/DEVICE.dir/startup_stm32h743zitx.s.obj
UsageFault_Handler                                device/CMakeFiles/DEVICE.dir/startup_stm32h743zitx.s.obj
WAKEUP_PIN_IRQHandler                             device/CMakeFiles/DEVICE.dir/startup_stm32h743zitx.s.obj
WWDG_IRQHandler                                   device/CMakeFiles/DEVICE.dir/startup_stm32h743zitx.s.obj
__bss_end__                                       c:/progra~2/gnuarm~1/102020~1/bin/../lib/gcc/arm-none-eabi/10.2.1/../../../../arm-none-eabi/lib/thumb/v7e-m+dp/hard/crt0.o
__bss_start__                                     c:/progra~2/gnuarm~1/102020~1/bin/../lib/gcc/arm-none-eabi/10.2.1/../../../../arm-none-eabi/lib/thumb/v7e-m+dp/hard/crt0.o
__call_exitprocs                                  c:/progra~2/gnuarm~1/102020~1/bin/../lib/gcc/arm-none-eabi/10.2.1/../../../../arm-none-eabi/lib/thumb/v7e-m+dp/hard\libc_nano.a(lib_a-exit.o)
__deregister_frame_info                           c:/progra~2/gnuarm~1/102020~1/bin/../lib/gcc/arm-none-eabi/10.2.1/thumb/v7e-m+dp/hard/crtbegin.o
__dso_handle                                      c:/progra~2/gnuarm~1/102020~1/bin/../lib/gcc/arm-none-eabi/10.2.1/thumb/v7e-m+dp/hard/crtbegin.o
__init_array_end                                  c:/progra~2/gnuarm~1/102020~1/bin/../lib/gcc/arm-none-eabi/10.2.1/../../../../arm-none-eabi/lib/thumb/v7e-m+dp/hard\libc_nano.a(lib_a-init.o)
__init_array_start                                c:/progra~2/gnuarm~1/102020~1/bin/../lib/gcc/arm-none-eabi/10.2.1/../../../../arm-none-eabi/lib/thumb/v7e-m+dp/hard\libc_nano.a(lib_a-init.o)
__libc_fini_array                                 c:/progra~2/gnuarm~1/102020~1/bin/../lib/gcc/arm-none-eabi/10.2.1/../../../../arm-none-eabi/lib/thumb/v7e-m+dp/hard/crt0.o
__libc_init_array                                 c:/progra~2/gnuarm~1/102020~1/bin/../lib/gcc/arm-none-eabi/10.2.1/../../../../arm-none-eabi/lib/thumb/v7e-m+dp/hard\libc_nano.a(lib_a-init.o)
                                                  device/CMakeFiles/DEVICE.dir/startup_stm32h743zitx.s.obj
                                                  c:/progra~2/gnuarm~1/102020~1/bin/../lib/gcc/arm-none-eabi/10.2.1/../../../../arm-none-eabi/lib/thumb/v7e-m+dp/hard/crt0.o
__preinit_array_end                               c:/progra~2/gnuarm~1/102020~1/bin/../lib/gcc/arm-none-eabi/10.2.1/../../../../arm-none-eabi/lib/thumb/v7e-m+dp/hard\libc_nano.a(lib_a-init.o)
__preinit_array_start                             c:/progra~2/gnuarm~1/102020~1/bin/../lib/gcc/arm-none-eabi/10.2.1/../../../../arm-none-eabi/lib/thumb/v7e-m+dp/hard\libc_nano.a(lib_a-init.o)
__register_frame_info                             c:/progra~2/gnuarm~1/102020~1/bin/../lib/gcc/arm-none-eabi/10.2.1/thumb/v7e-m+dp/hard/crtbegin.o
__sf_fake_stderr                                  c:/progra~2/gnuarm~1/102020~1/bin/../lib/gcc/arm-none-eabi/10.2.1/../../../../arm-none-eabi/lib/thumb/v7e-m+dp/hard\libc_nano.a(lib_a-impure.o)
__sf_fake_stdin                                   c:/progra~2/gnuarm~1/102020~1/bin/../lib/gcc/arm-none-eabi/10.2.1/../../../../arm-none-eabi/lib/thumb/v7e-m+dp/hard\libc_nano.a(lib_a-impure.o)
__sf_fake_stdout                                  c:/progra~2/gnuarm~1/102020~1/bin/../lib/gcc/arm-none-eabi/10.2.1/../../../../arm-none-eabi/lib/thumb/v7e-m+dp/hard\libc_nano.a(lib_a-impure.o)
__stack                                           c:/progra~2/gnuarm~1/102020~1/bin/../lib/gcc/arm-none-eabi/10.2.1/../../../../arm-none-eabi/lib/thumb/v7e-m+dp/hard/crt0.o
_ebss                                             device/CMakeFiles/DEVICE.dir/startup_stm32h743zitx.s.obj
_edata                                            device/CMakeFiles/DEVICE.dir/startup_stm32h743zitx.s.obj
_estack                                           device/CMakeFiles/DEVICE.dir/startup_stm32h743zitx.s.obj
_exit                                             c:/progra~2/gnuarm~1/102020~1/bin/../lib/gcc/arm-none-eabi/10.2.1/../../../../arm-none-eabi/lib/thumb/v7e-m+dp/hard\libnosys.a(_exit.o)
                                                  c:/progra~2/gnuarm~1/102020~1/bin/../lib/gcc/arm-none-eabi/10.2.1/../../../../arm-none-eabi/lib/thumb/v7e-m+dp/hard\libc_nano.a(lib_a-exit.o)
_fini                                             c:/progra~2/gnuarm~1/102020~1/bin/../lib/gcc/arm-none-eabi/10.2.1/thumb/v7e-m+dp/hard/crti.o
_global_impure_ptr                                c:/progra~2/gnuarm~1/102020~1/bin/../lib/gcc/arm-none-eabi/10.2.1/../../../../arm-none-eabi/lib/thumb/v7e-m+dp/hard\libc_nano.a(lib_a-impure.o)
                                                  c:/progra~2/gnuarm~1/102020~1/bin/../lib/gcc/arm-none-eabi/10.2.1/../../../../arm-none-eabi/lib/thumb/v7e-m+dp/hard\libc_nano.a(lib_a-exit.o)
_impure_ptr                                       c:/progra~2/gnuarm~1/102020~1/bin/../lib/gcc/arm-none-eabi/10.2.1/../../../../arm-none-eabi/lib/thumb/v7e-m+dp/hard\libc_nano.a(lib_a-impure.o)
_init                                             c:/progra~2/gnuarm~1/102020~1/bin/../lib/gcc/arm-none-eabi/10.2.1/thumb/v7e-m+dp/hard/crti.o
                                                  c:/progra~2/gnuarm~1/102020~1/bin/../lib/gcc/arm-none-eabi/10.2.1/../../../../arm-none-eabi/lib/thumb/v7e-m+dp/hard\libc_nano.a(lib_a-init.o)
_mainCRTStartup                                   c:/progra~2/gnuarm~1/102020~1/bin/../lib/gcc/arm-none-eabi/10.2.1/../../../../arm-none-eabi/lib/thumb/v7e-m+dp/hard/crt0.o
_sbss                                             device/CMakeFiles/DEVICE.dir/startup_stm32h743zitx.s.obj
_sdata                                            device/CMakeFiles/DEVICE.dir/startup_stm32h743zitx.s.obj
_sidata                                           device/CMakeFiles/DEVICE.dir/startup_stm32h743zitx.s.obj
_stack_init                                       c:/progra~2/gnuarm~1/102020~1/bin/../lib/gcc/arm-none-eabi/10.2.1/../../../../arm-none-eabi/lib/thumb/v7e-m+dp/hard/crt0.o
_start                                            c:/progra~2/gnuarm~1/102020~1/bin/../lib/gcc/arm-none-eabi/10.2.1/../../../../arm-none-eabi/lib/thumb/v7e-m+dp/hard/crt0.o
atexit                                            c:/progra~2/gnuarm~1/102020~1/bin/../lib/gcc/arm-none-eabi/10.2.1/../../../../arm-none-eabi/lib/thumb/v7e-m+dp/hard/crt0.o
exit                                              c:/progra~2/gnuarm~1/102020~1/bin/../lib/gcc/arm-none-eabi/10.2.1/../../../../arm-none-eabi/lib/thumb/v7e-m+dp/hard\libc_nano.a(lib_a-exit.o)
                                                  c:/progra~2/gnuarm~1/102020~1/bin/../lib/gcc/arm-none-eabi/10.2.1/../../../../arm-none-eabi/lib/thumb/v7e-m+dp/hard/crt0.o
g_pfnVectors                                      device/CMakeFiles/DEVICE.dir/startup_stm32h743zitx.s.obj
hardware_init_hook                                c:/progra~2/gnuarm~1/102020~1/bin/../lib/gcc/arm-none-eabi/10.2.1/../../../../arm-none-eabi/lib/thumb/v7e-m+dp/hard/crt0.o
main                                              CMakeFiles/CMAKE_Simple.elf.dir/src/main.c.obj
                                                  device/CMakeFiles/DEVICE.dir/startup_stm32h743zitx.s.obj
                                                  c:/progra~2/gnuarm~1/102020~1/bin/../lib/gcc/arm-none-eabi/10.2.1/../../../../arm-none-eabi/lib/thumb/v7e-m+dp/hard/crt0.o
memset                                            c:/progra~2/gnuarm~1/102020~1/bin/../lib/gcc/arm-none-eabi/10.2.1/../../../../arm-none-eabi/lib/thumb/v7e-m+dp/hard\libc_nano.a(lib_a-memset.o)
                                                  c:/progra~2/gnuarm~1/102020~1/bin/../lib/gcc/arm-none-eabi/10.2.1/../../../../arm-none-eabi/lib/thumb/v7e-m+dp/hard/crt0.o
software_init_hook                                c:/progra~2/gnuarm~1/102020~1/bin/../lib/gcc/arm-none-eabi/10.2.1/../../../../arm-none-eabi/lib/thumb/v7e-m+dp/hard/crt0.o
